target datalayout = "e-m:e-p270:32:32-p271:32:32-p272:64:64-i64:64-i128:128-f80:128-n8:16:32:64-S128"
target triple = "x86_64-pc-linux-gnu"

%"class.open3d::utility::Timer" = type { double, double }

@.str = private unnamed_addr constant [120 x i8] c"generated/home/dtcxzyw/WorkSpace/Projects/compilers/llvm-opt-benchmark/bench/open3d/Open3D/cpp/open3d/utility/Timer.cpp\00", align 1
@__PRETTY_FUNCTION__._ZNK6open3d7utility5Timer5PrintERKNSt7__cxx1112basic_stringIcSt11char_traitsIcESaIcEEE = private unnamed_addr constant [62 x i8] c"void open3d::utility::Timer::Print(const std::string &) const\00", align 1
@.str.1 = private unnamed_addr constant [14 x i8] c"{} {:.2f} ms.\00", align 1

; Function Attrs: mustprogress ssp uwtable
define void @_ZNK6open3d7utility5Timer5PrintERKNSt7__cxx1112basic_stringIcSt11char_traitsIcESaIcEEE(ptr noundef nonnull align 8 dereferenceable(16) %0, ptr noundef nonnull align 8 dereferenceable(32) %1) #1 align 2 {
  %3 = alloca ptr, align 8
  %4 = alloca ptr, align 8
  %5 = alloca double, align 8
  store ptr %0, ptr %3, align 8, !tbaa !4
  store ptr %1, ptr %4, align 8, !tbaa !53
  %6 = load ptr, ptr %3, align 8
  %7 = load ptr, ptr %4, align 8, !tbaa !53
  call void @llvm.lifetime.start.p0(i64 8, ptr %5) #25
  %8 = getelementptr inbounds nuw %"class.open3d::utility::Timer", ptr %6, i32 0, i32 1
  %9 = load double, ptr %8, align 8, !tbaa !12
  %10 = getelementptr inbounds nuw %"class.open3d::utility::Timer", ptr %6, i32 0, i32 0
  %11 = load double, ptr %10, align 8, !tbaa !9
  %12 = fsub double %9, %11
  store double %12, ptr %5, align 8, !tbaa !24
  call void @_ZN6open3d7utility6Logger8LogInfo_IJRKNSt7__cxx1112basic_stringIcSt11char_traitsIcESaIcEEEdEEEvPKciSC_SC_DpOT_(ptr noundef @.str, i32 noundef 54, ptr noundef @__PRETTY_FUNCTION__._ZNK6open3d7utility5Timer5PrintERKNSt7__cxx1112basic_stringIcSt11char_traitsIcESaIcEEE, ptr noundef @.str.1, ptr noundef nonnull align 8 dereferenceable(32) %7, ptr noundef nonnull align 8 dereferenceable(8) %5)
  call void @llvm.lifetime.end.p0(i64 8, ptr %5) #25
  ret void
}