; Function Attrs: mustprogress ssp uwtable
define void @_ZNK6open3d7utility5Timer5PrintERKNSt7__cxx1112basic_stringIcSt11char_traitsIcESaIcEEE(ptr noundef nonnull readonly align 8 captures(none) dereferenceable(16) %0, ptr noundef nonnull align 8 dereferenceable(32) %1) local_unnamed_addr #11 align 2 {
  %3 = alloca double, align 8
  call void @llvm.lifetime.start.p0(i64 8, ptr nonnull %3) #30
  %4 = getelementptr inbounds nuw i8, ptr %0, i64 8
  %5 = load double, ptr %4, align 8, !tbaa !9
  %6 = load double, ptr %0, align 8, !tbaa !4
  %7 = fsub double %5, %6
  store double %7, ptr %3, align 8, !tbaa !20
  call void @_ZN6open3d7utility6Logger8LogInfo_IJRKNSt7__cxx1112basic_stringIcSt11char_traitsIcESaIcEEEdEEEvPKciSC_SC_DpOT_(ptr noundef nonnull @.str, i32 noundef 54, ptr noundef nonnull @__PRETTY_FUNCTION__._ZNK6open3d7utility5Timer5PrintERKNSt7__cxx1112basic_stringIcSt11char_traitsIcESaIcEEE, ptr noundef nonnull @.str.1, ptr noundef nonnull align 8 dereferenceable(32) %1, ptr noundef nonnull align 8 dereferenceable(8) %3)
  call void @llvm.lifetime.end.p0(i64 8, ptr nonnull %3) #30
  ret void
}